target datalayout = "e-m:e-p270:32:32-p271:32:32-p272:64:64-i64:64-i128:128-f80:128-n8:16:32:64-S128"
target triple = "x86_64-pc-linux-gnu"

%"class.base::Time" = type { %"class.base::time_internal::TimeBase" }
%"class.base::time_internal::TimeBase" = type { i64 }

@_ZN4base4Time26kTimeTToMicrosecondsOffsetE = external constant i64, align 8

; Function Attrs: mustprogress nounwind uwtable
define linkonce_odr void @_ZN4base13time_internal8TimeBaseINS_4TimeEEC2El(ptr noundef nonnull align 8 dereferenceable(8) %0, i64 noundef %1) unnamed_addr #1 comdat align 2 {
  %3 = alloca ptr, align 8
  %4 = alloca i64, align 8
  store ptr %0, ptr %3, align 8, !tbaa !26
  store i64 %1, ptr %4, align 8, !tbaa !8
  %5 = load ptr, ptr %3, align 8
  %6 = getelementptr inbounds nuw %"class.base::time_internal::TimeBase", ptr %5, i32 0, i32 0
  %7 = load i64, ptr %4, align 8, !tbaa !8
  store i64 %7, ptr %6, align 8, !tbaa !29
  ret void
}

; Function Attrs: mustprogress nounwind uwtable
define linkonce_odr void @_ZN4base4TimeC2El(ptr noundef nonnull align 8 dereferenceable(8) %0, i64 noundef %1) unnamed_addr #1 comdat align 2 {
  %3 = alloca ptr, align 8
  %4 = alloca i64, align 8
  store ptr %0, ptr %3, align 8, !tbaa !24
  store i64 %1, ptr %4, align 8, !tbaa !8
  %5 = load ptr, ptr %3, align 8
  %6 = load i64, ptr %4, align 8, !tbaa !8
  call void @_ZN4base13time_internal8TimeBaseINS_4TimeEEC2El(ptr noundef nonnull align 8 dereferenceable(8) %5, i64 noundef %6)
  ret void
}

; Function Attrs: mustprogress uwtable
define noundef zeroext i1 @_ZN4base4Time18FromStringInternalEPKcbPS0_(ptr noundef %0, i1 noundef zeroext %1, ptr noundef %2) #0 align 2 {
  %4 = alloca i1, align 1
  %5 = alloca ptr, align 8
  %6 = alloca i8, align 1
  %7 = alloca ptr, align 8
  %8 = alloca i64, align 8
  %9 = alloca i32, align 4
  %10 = alloca i32, align 4
  %11 = alloca %"class.base::Time", align 8
  store ptr %0, ptr %5, align 8, !tbaa !18
  %12 = zext i1 %1 to i8
  store i8 %12, ptr %6, align 1, !tbaa !44
  store ptr %2, ptr %7, align 8, !tbaa !24
  %13 = load ptr, ptr %5, align 8, !tbaa !18
  %14 = getelementptr inbounds i8, ptr %13, i64 0
  %15 = load i8, ptr %14, align 1, !tbaa !13
  %16 = sext i8 %15 to i32
  %17 = icmp eq i32 %16, 0
  br i1 %17, label %18, label %19

18:                                               ; preds = %3
  store i1 false, ptr %4, align 1
  br label %35

19:                                               ; preds = %3
  call void @llvm.lifetime.start.p0(i64 8, ptr %8) #12
  store i64 0, ptr %8, align 8, !tbaa !8
  call void @llvm.lifetime.start.p0(i64 4, ptr %9) #12
  %20 = load ptr, ptr %5, align 8, !tbaa !18
  %21 = load i8, ptr %6, align 1, !tbaa !44, !range !46, !noundef !47
  %22 = trunc i8 %21 to i1
  %23 = select i1 %22, i32 0, i32 1
  %24 = call noundef i32 @_Z18PR_ParseTimeStringPKciPl(ptr noundef %20, i32 noundef %23, ptr noundef %8)
  store i32 %24, ptr %9, align 4, !tbaa !48
  %25 = load i32, ptr %9, align 4, !tbaa !48
  %26 = icmp ne i32 0, %25
  br i1 %26, label %27, label %28

27:                                               ; preds = %19
  store i1 false, ptr %4, align 1
  store i32 1, ptr %10, align 4
  br label %34

28:                                               ; preds = %19
  %29 = load i64, ptr @_ZN4base4Time26kTimeTToMicrosecondsOffsetE, align 8, !tbaa !8
  %30 = load i64, ptr %8, align 8, !tbaa !8
  %31 = add nsw i64 %30, %29
  store i64 %31, ptr %8, align 8, !tbaa !8
  call void @llvm.lifetime.start.p0(i64 8, ptr %11) #12
  %32 = load i64, ptr %8, align 8, !tbaa !8
  call void @_ZN4base4TimeC2El(ptr noundef nonnull align 8 dereferenceable(8) %11, i64 noundef %32)
  %33 = load ptr, ptr %7, align 8, !tbaa !24
  call void @llvm.memcpy.p0.p0.i64(ptr align 8 %33, ptr align 8 %11, i64 8, i1 false)
  call void @llvm.lifetime.end.p0(i64 8, ptr %11) #12
  store i1 true, ptr %4, align 1
  store i32 1, ptr %10, align 4
  br label %34

34:                                               ; preds = %28, %27
  call void @llvm.lifetime.end.p0(i64 4, ptr %9) #12
  call void @llvm.lifetime.end.p0(i64 8, ptr %8) #12
  br label %35

35:                                               ; preds = %34, %18
  %36 = load i1, ptr %4, align 1
  ret i1 %36
}