; Function Attrs: mustprogress uwtable
define noundef zeroext i1 @_ZN4base4Time18FromStringInternalEPKcbPS0_(ptr noundef %0, i1 noundef zeroext %1, ptr noundef writeonly captures(none) %2) local_unnamed_addr #3 align 2 {
  %4 = alloca i64, align 8
  %5 = load i8, ptr %0, align 1, !tbaa !14
  %6 = icmp eq i8 %5, 0
  br i1 %6, label %15, label %7

7:                                                ; preds = %3
  call void @llvm.lifetime.start.p0(i64 8, ptr nonnull %4) #8
  store i64 0, ptr %4, align 8, !tbaa !8
  %not. = xor i1 %1, true
  %8 = zext i1 %not. to i32
  %9 = call noundef i32 @_Z18PR_ParseTimeStringPKciPl(ptr noundef nonnull %0, i32 noundef %8, ptr noundef nonnull %4)
  %.not = icmp eq i32 %9, 0
  br i1 %.not, label %10, label %14

10:                                               ; preds = %7
  %11 = load i64, ptr @_ZN4base4Time26kTimeTToMicrosecondsOffsetE, align 8, !tbaa !8
  %12 = load i64, ptr %4, align 8, !tbaa !8
  %13 = add nsw i64 %12, %11
  store i64 %13, ptr %2, align 8
  br label %14

14:                                               ; preds = %7, %10
  call void @llvm.lifetime.end.p0(i64 8, ptr nonnull %4) #8
  br label %15

15:                                               ; preds = %3, %14
  %.0 = phi i1 [ %.not, %14 ], [ false, %3 ]
  ret i1 %.0
}